target datalayout = "e-m:e-p270:32:32-p271:32:32-p272:64:64-i64:64-i128:128-f80:128-n8:16:32:64-S128"
target triple = "x86_64-pc-linux-gnu"

%struct.cpu_set_t = type { [16 x i64] }
%struct.hwloc_topology = type { i32, i32, i32, ptr, ptr, i64, [20 x i32], [20 x i32], i64, i64, i32, ptr, i64, ptr, i64, [6 x %struct.hwloc_special_level_s], ptr, ptr, %struct.hwloc_binding_hooks, %struct.hwloc_topology_support, %struct.hwloc_infos_s, ptr, ptr, i32, ptr, ptr, i32, i32, ptr, i32, i32, ptr, i32, i32, i32, [5 x float], i32, ptr, ptr, i32, i32, ptr, i32, %struct.hwloc_numanode_attr_s, i32, i32, ptr, i64, i32, ptr, ptr, ptr }
%struct.hwloc_special_level_s = type { i32, ptr, ptr, ptr }
%struct.hwloc_binding_hooks = type { ptr, ptr, ptr, ptr, ptr, ptr, ptr, ptr, ptr, ptr, ptr, ptr, ptr, ptr, ptr, ptr, ptr, ptr, ptr, ptr, ptr, ptr, ptr, ptr }
%struct.hwloc_topology_support = type { ptr, ptr, ptr, ptr }
%struct.hwloc_infos_s = type { ptr, i32, i32 }
%struct.hwloc_numanode_attr_s = type { i64, i32, ptr }

; Function Attrs: nounwind uwtable
define internal i32 @hwloc_linux_set_thread_cpubind(ptr noundef %0, i64 noundef %1, ptr noundef %2, i32 noundef %3) #0 {
  %5 = alloca i32, align 4
  %6 = alloca ptr, align 8
  %7 = alloca i64, align 8
  %8 = alloca ptr, align 8
  %9 = alloca i32, align 4
  %10 = alloca i32, align 4
  %11 = alloca i32, align 4
  %12 = alloca ptr, align 8
  %13 = alloca i32, align 4
  %14 = alloca i32, align 4
  %15 = alloca i64, align 8
  %16 = alloca i64, align 8
  %17 = alloca i64, align 8
  store ptr %0, ptr %6, align 8, !tbaa !19
  store i64 %1, ptr %7, align 8, !tbaa !12
  store ptr %2, ptr %8, align 8, !tbaa !8
  store i32 %3, ptr %9, align 4, !tbaa !10
  call void @llvm.lifetime.start.p0(i64 4, ptr %10) #14
  %18 = load ptr, ptr %6, align 8, !tbaa !19
  %19 = getelementptr inbounds nuw %struct.hwloc_topology, ptr %18, i32 0, i32 10
  %20 = load i32, ptr %19, align 8, !tbaa !86
  %21 = icmp ne i32 %20, 0
  br i1 %21, label %22, label %24

22:                                               ; preds = %4
  %23 = call ptr @__errno_location() #18
  store i32 38, ptr %23, align 4, !tbaa !10
  store i32 -1, ptr %5, align 4
  store i32 1, ptr %11, align 4
  br label %117

24:                                               ; preds = %4
  %25 = icmp ne ptr @pthread_self, null
  br i1 %25, label %28, label %26

26:                                               ; preds = %24
  %27 = call ptr @__errno_location() #18
  store i32 38, ptr %27, align 4, !tbaa !10
  store i32 -1, ptr %5, align 4
  store i32 1, ptr %11, align 4
  br label %117

28:                                               ; preds = %24
  %29 = load i64, ptr %7, align 8, !tbaa !12
  %30 = call i64 @pthread_self() #18
  %31 = icmp eq i64 %29, %30
  br i1 %31, label %32, label %36

32:                                               ; preds = %28
  %33 = load ptr, ptr %6, align 8, !tbaa !19
  %34 = load ptr, ptr %8, align 8, !tbaa !8
  %35 = call i32 @hwloc_linux_set_tid_cpubind(ptr noundef %33, i32 noundef 0, ptr noundef %34)
  store i32 %35, ptr %5, align 4
  store i32 1, ptr %11, align 4
  br label %117

36:                                               ; preds = %28
  %37 = icmp ne ptr @pthread_setaffinity_np, null
  br i1 %37, label %40, label %38

38:                                               ; preds = %36
  %39 = call ptr @__errno_location() #18
  store i32 38, ptr %39, align 4, !tbaa !10
  store i32 -1, ptr %5, align 4
  store i32 1, ptr %11, align 4
  br label %117

40:                                               ; preds = %36
  call void @llvm.lifetime.start.p0(i64 8, ptr %12) #14
  call void @llvm.lifetime.start.p0(i64 4, ptr %13) #14
  call void @llvm.lifetime.start.p0(i64 4, ptr %14) #14
  call void @llvm.lifetime.start.p0(i64 8, ptr %15) #14
  %41 = load ptr, ptr %8, align 8, !tbaa !8
  %42 = call i32 @hwloc_bitmap_last(ptr noundef %41) #17
  store i32 %42, ptr %14, align 4, !tbaa !10
  %43 = load i32, ptr %14, align 4, !tbaa !10
  %44 = icmp eq i32 %43, -1
  br i1 %44, label %45, label %47

45:                                               ; preds = %40
  %46 = call ptr @__errno_location() #18
  store i32 22, ptr %46, align 4, !tbaa !10
  store i32 -1, ptr %5, align 4
  store i32 1, ptr %11, align 4
  br label %108

47:                                               ; preds = %40
  %48 = load i32, ptr %14, align 4, !tbaa !10
  %49 = add nsw i32 %48, 1
  %50 = sext i32 %49 to i64
  %51 = add i64 %50, 64
  %52 = sub i64 %51, 1
  %53 = udiv i64 %52, 64
  %54 = mul i64 %53, 8
  store i64 %54, ptr %15, align 8, !tbaa !12
  %55 = load i32, ptr %14, align 4, !tbaa !10
  %56 = add nsw i32 %55, 1
  %57 = sext i32 %56 to i64
  %58 = call ptr @__sched_cpualloc(i64 noundef %57) #14
  store ptr %58, ptr %12, align 8, !tbaa !21
  %59 = load ptr, ptr %12, align 8, !tbaa !21
  %60 = icmp ne ptr %59, null
  br i1 %60, label %62, label %61

61:                                               ; preds = %47
  store i32 -1, ptr %5, align 4
  store i32 1, ptr %11, align 4
  br label %108

62:                                               ; preds = %47
  br label %63

63:                                               ; preds = %62
  %64 = load ptr, ptr %12, align 8, !tbaa !21
  %65 = load i64, ptr %15, align 8, !tbaa !12
  call void @llvm.memset.p0.i64(ptr align 8 %64, i8 0, i64 %65, i1 false)
  br label %66

66:                                               ; preds = %63
  br label %67

67:                                               ; preds = %66
  br label %68

68:                                               ; preds = %67
  %69 = load ptr, ptr %8, align 8, !tbaa !8
  %70 = call i32 @hwloc_bitmap_first(ptr noundef %69) #17
  store i32 %70, ptr %13, align 4, !tbaa !10
  br label %71

71:                                               ; preds = %96, %68
  %72 = load i32, ptr %13, align 4, !tbaa !10
  %73 = icmp ne i32 %72, -1
  br i1 %73, label %74, label %100

74:                                               ; preds = %71
  call void @llvm.lifetime.start.p0(i64 8, ptr %16) #14
  %75 = load i32, ptr %13, align 4, !tbaa !10
  %76 = zext i32 %75 to i64
  store i64 %76, ptr %16, align 8, !tbaa !12
  %77 = load i64, ptr %16, align 8, !tbaa !12
  %78 = udiv i64 %77, 8
  %79 = load i64, ptr %15, align 8, !tbaa !12
  %80 = icmp ult i64 %78, %79
  br i1 %80, label %81, label %93

81:                                               ; preds = %74
  %82 = load i64, ptr %16, align 8, !tbaa !12
  %83 = urem i64 %82, 64
  %84 = shl i64 1, %83
  %85 = load ptr, ptr %12, align 8, !tbaa !21
  %86 = getelementptr inbounds nuw %struct.cpu_set_t, ptr %85, i32 0, i32 0
  %87 = getelementptr inbounds [16 x i64], ptr %86, i64 0, i64 0
  %88 = load i64, ptr %16, align 8, !tbaa !12
  %89 = udiv i64 %88, 64
  %90 = getelementptr inbounds nuw i64, ptr %87, i64 %89
  %91 = load i64, ptr %90, align 8, !tbaa !12
  %92 = or i64 %91, %84
  store i64 %92, ptr %90, align 8, !tbaa !12
  br label %94

93:                                               ; preds = %74
  br label %94

94:                                               ; preds = %93, %81
  %95 = phi i64 [ %92, %81 ], [ 0, %93 ]
  store i64 %95, ptr %17, align 8, !tbaa !12
  call void @llvm.lifetime.end.p0(i64 8, ptr %16) #14
  br label %96

96:                                               ; preds = %94
  %97 = load ptr, ptr %8, align 8, !tbaa !8
  %98 = load i32, ptr %13, align 4, !tbaa !10
  %99 = call i32 @hwloc_bitmap_next(ptr noundef %97, i32 noundef %98) #17
  store i32 %99, ptr %13, align 4, !tbaa !10
  br label %71, !llvm.loop !87

100:                                              ; preds = %71
  br label %101

101:                                              ; preds = %100
  br label %102

102:                                              ; preds = %101
  %103 = load i64, ptr %7, align 8, !tbaa !12
  %104 = load i64, ptr %15, align 8, !tbaa !12
  %105 = load ptr, ptr %12, align 8, !tbaa !21
  %106 = call i32 @pthread_setaffinity_np(i64 noundef %103, i64 noundef %104, ptr noundef %105) #14
  store i32 %106, ptr %10, align 4, !tbaa !10
  %107 = load ptr, ptr %12, align 8, !tbaa !21
  call void @__sched_cpufree(ptr noundef %107) #14
  store i32 0, ptr %11, align 4
  br label %108

108:                                              ; preds = %102, %61, %45
  call void @llvm.lifetime.end.p0(i64 8, ptr %15) #14
  call void @llvm.lifetime.end.p0(i64 4, ptr %14) #14
  call void @llvm.lifetime.end.p0(i64 4, ptr %13) #14
  call void @llvm.lifetime.end.p0(i64 8, ptr %12) #14
  %109 = load i32, ptr %11, align 4
  switch i32 %109, label %117 [
    i32 0, label %110
  ]

110:                                              ; preds = %108
  %111 = load i32, ptr %10, align 4, !tbaa !10
  %112 = icmp ne i32 %111, 0
  br i1 %112, label %113, label %116

113:                                              ; preds = %110
  %114 = load i32, ptr %10, align 4, !tbaa !10
  %115 = call ptr @__errno_location() #18
  store i32 %114, ptr %115, align 4, !tbaa !10
  store i32 -1, ptr %5, align 4
  store i32 1, ptr %11, align 4
  br label %117

116:                                              ; preds = %110
  store i32 0, ptr %5, align 4
  store i32 1, ptr %11, align 4
  br label %117

117:                                              ; preds = %116, %113, %108, %38, %32, %26, %22
  call void @llvm.lifetime.end.p0(i64 4, ptr %10) #14
  %118 = load i32, ptr %5, align 4
  ret i32 %118
}