; Function Attrs: nounwind uwtable
define internal i32 @hwloc_linux_set_thread_cpubind(ptr noundef readonly captures(none) %0, i64 noundef %1, ptr noundef %2, i32 %3) #0 {
  %5 = getelementptr inbounds nuw i8, ptr %0, i64 216
  %6 = load i32, ptr %5, align 8, !tbaa !77
  %.not = icmp eq i32 %6, 0
  br i1 %.not, label %9, label %7

7:                                                ; preds = %4
  %8 = tail call ptr @__errno_location() #31
  store i32 38, ptr %8, align 4, !tbaa !3
  br label %.thread

9:                                                ; preds = %4
  %.not34 = icmp eq ptr @pthread_self, null
  br i1 %.not34, label %10, label %12

10:                                               ; preds = %9
  %11 = tail call ptr @__errno_location() #31
  store i32 38, ptr %11, align 4, !tbaa !3
  br label %.thread

12:                                               ; preds = %9
  %13 = tail call i64 @pthread_self() #31
  %14 = icmp eq i64 %1, %13
  br i1 %14, label %15, label %17

15:                                               ; preds = %12
  %16 = tail call i32 @hwloc_linux_set_tid_cpubind(ptr nonnull poison, i32 noundef 0, ptr noundef %2)
  br label %.thread

17:                                               ; preds = %12
  %.not35 = icmp eq ptr @pthread_setaffinity_np, null
  br i1 %.not35, label %18, label %20

18:                                               ; preds = %17
  %19 = tail call ptr @__errno_location() #31
  store i32 38, ptr %19, align 4, !tbaa !3
  br label %.thread

20:                                               ; preds = %17
  %21 = tail call i32 @hwloc_bitmap_last(ptr noundef %2) #30
  %22 = icmp eq i32 %21, -1
  br i1 %22, label %23, label %25

23:                                               ; preds = %20
  %24 = tail call ptr @__errno_location() #31
  store i32 22, ptr %24, align 4, !tbaa !3
  br label %.thread

25:                                               ; preds = %20
  %26 = add nuw nsw i32 %21, 1
  %27 = sext i32 %26 to i64
  %28 = add nsw i64 %27, 63
  %29 = lshr i64 %28, 3
  %30 = and i64 %29, 2305843009213693944
  %31 = tail call ptr @__sched_cpualloc(i64 noundef %27) #27
  %.not36 = icmp eq ptr %31, null
  br i1 %.not36, label %.thread, label %32

32:                                               ; preds = %25
  tail call void @llvm.memset.p0.i64(ptr nonnull align 8 %31, i8 0, i64 %30, i1 false)
  %33 = tail call i32 @hwloc_bitmap_first(ptr noundef %2) #30
  %.not3741 = icmp eq i32 %33, -1
  br i1 %.not3741, label %._crit_edge, label %.lr.ph

.lr.ph:                                           ; preds = %32, %44
  %.03042 = phi i32 [ %45, %44 ], [ %33, %32 ]
  %34 = zext i32 %.03042 to i64
  %35 = lshr i64 %34, 3
  %36 = icmp samesign ult i64 %35, %30
  br i1 %36, label %37, label %44

37:                                               ; preds = %.lr.ph
  %38 = and i64 %34, 63
  %39 = shl nuw i64 1, %38
  %40 = lshr i64 %34, 6
  %41 = getelementptr inbounds nuw i64, ptr %31, i64 %40
  %42 = load i64, ptr %41, align 8, !tbaa !10
  %43 = or i64 %42, %39
  store i64 %43, ptr %41, align 8, !tbaa !10
  br label %44

44:                                               ; preds = %.lr.ph, %37
  %45 = tail call i32 @hwloc_bitmap_next(ptr noundef %2, i32 noundef %.03042) #30
  %.not37 = icmp eq i32 %45, -1
  br i1 %.not37, label %._crit_edge, label %.lr.ph, !llvm.loop !82

._crit_edge:                                      ; preds = %44, %32
  %46 = tail call i32 @pthread_setaffinity_np(i64 noundef %1, i64 noundef %30, ptr noundef nonnull %31) #27
  tail call void @__sched_cpufree(ptr noundef nonnull %31) #27
  %.not38 = icmp eq i32 %46, 0
  br i1 %.not38, label %.thread, label %47

47:                                               ; preds = %._crit_edge
  %48 = tail call ptr @__errno_location() #31
  store i32 %46, ptr %48, align 4, !tbaa !3
  br label %.thread

.thread:                                          ; preds = %25, %23, %._crit_edge, %47, %18, %15, %10, %7
  %.0 = phi i32 [ -1, %7 ], [ %16, %15 ], [ -1, %47 ], [ -1, %18 ], [ -1, %10 ], [ 0, %._crit_edge ], [ -1, %23 ], [ -1, %25 ]
  ret i32 %.0
}